target datalayout = "e-m:e-p270:32:32-p271:32:32-p272:64:64-i64:64-i128:128-f80:128-n8:16:32:64-S128"
target triple = "x86_64-pc-linux-gnu"

%struct.ident_t = type { i32, i32, i32, i32, ptr }
%"class.std::vector" = type { %"struct.std::_Vector_base" }
%"struct.std::_Vector_base" = type { %"struct.std::_Vector_base<long, std::allocator<long>>::_Vector_impl" }
%"struct.std::_Vector_base<long, std::allocator<long>>::_Vector_impl" = type { %"struct.std::_Vector_base<long, std::allocator<long>>::_Vector_impl_data" }
%"struct.std::_Vector_base<long, std::allocator<long>>::_Vector_impl_data" = type { ptr, ptr, ptr }
%"struct.faiss::IndexIDMapTemplate.3" = type { %"struct.faiss::IndexBinary", ptr, i8, %"class.std::vector" }
%"struct.faiss::IndexBinary" = type { ptr, i32, i32, i64, i8, i8, i32 }

@1 = private unnamed_addr constant %struct.ident_t { i32 0, i32 514, i32 0, i32 22, ptr @0 }, align 8

; Function Attrs: mustprogress nounwind uwtable
define linkonce_odr noundef nonnull align 8 dereferenceable(8) ptr @_ZNKSt6vectorIlSaIlEEixEm(ptr noundef nonnull align 8 dereferenceable(24) %0, i64 noundef %1) #0 comdat align 2 {
  %3 = alloca ptr, align 8
  %4 = alloca i64, align 8
  store ptr %0, ptr %3, align 8, !tbaa !88
  store i64 %1, ptr %4, align 8, !tbaa !9
  %5 = load ptr, ptr %3, align 8
  %6 = getelementptr inbounds nuw %"struct.std::_Vector_base", ptr %5, i32 0, i32 0
  %7 = getelementptr inbounds nuw %"struct.std::_Vector_base<long, std::allocator<long>>::_Vector_impl_data", ptr %6, i32 0, i32 0
  %8 = load ptr, ptr %7, align 8, !tbaa !96
  %9 = load i64, ptr %4, align 8, !tbaa !9
  %10 = getelementptr inbounds nuw i64, ptr %8, i64 %9
  ret ptr %10
}

; Function Attrs: alwaysinline norecurse nounwind uwtable
define internal void @_ZNK5faiss18IndexIDMapTemplateINS_11IndexBinaryEE6searchElPKhlPiPlPKNS_16SearchParametersE.omp_outlined(ptr noalias noundef %0, ptr noalias noundef %1, ptr noundef nonnull align 8 dereferenceable(8) %2, ptr noundef nonnull align 8 dereferenceable(8) %3, ptr noundef nonnull align 8 dereferenceable(8) %4, ptr noundef %5) #15 {
  %7 = alloca ptr, align 8
  %8 = alloca ptr, align 8
  %9 = alloca ptr, align 8
  %10 = alloca ptr, align 8
  %11 = alloca ptr, align 8
  %12 = alloca ptr, align 8
  %13 = alloca i64, align 8
  %14 = alloca i64, align 8
  %15 = alloca i64, align 8
  %16 = alloca i64, align 8
  %17 = alloca i64, align 8
  %18 = alloca i64, align 8
  %19 = alloca i64, align 8
  %20 = alloca i32, align 4
  %21 = alloca i64, align 8
  store ptr %0, ptr %7, align 8, !tbaa !68
  store ptr %1, ptr %8, align 8, !tbaa !68
  store ptr %2, ptr %9, align 8, !tbaa !31
  store ptr %3, ptr %10, align 8, !tbaa !31
  store ptr %4, ptr %11, align 8, !tbaa !120
  store ptr %5, ptr %12, align 8, !tbaa !59
  %22 = load ptr, ptr %9, align 8, !tbaa !31
  %23 = load ptr, ptr %10, align 8, !tbaa !31
  %24 = load ptr, ptr %11, align 8, !tbaa !120
  %25 = load ptr, ptr %12, align 8, !tbaa !59
  call void @llvm.lifetime.start.p0(i64 8, ptr %13) #16
  call void @llvm.lifetime.start.p0(i64 8, ptr %14) #16
  %26 = load i64, ptr %22, align 8, !tbaa !9
  %27 = load i64, ptr %23, align 8, !tbaa !9
  %28 = mul nsw i64 %26, %27
  store i64 %28, ptr %14, align 8, !tbaa !9
  call void @llvm.lifetime.start.p0(i64 8, ptr %15) #16
  %29 = load i64, ptr %14, align 8, !tbaa !9
  %30 = sub nsw i64 %29, 0
  %31 = sdiv i64 %30, 1
  %32 = sub nsw i64 %31, 1
  store i64 %32, ptr %15, align 8, !tbaa !9
  call void @llvm.lifetime.start.p0(i64 8, ptr %16) #16
  store i64 0, ptr %16, align 8, !tbaa !9
  call void @llvm.lifetime.end.p0(i64 8, ptr %16) #16
  %33 = load i64, ptr %14, align 8, !tbaa !9
  %34 = icmp slt i64 0, %33
  br i1 %34, label %35, label %89

35:                                               ; preds = %6
  call void @llvm.lifetime.start.p0(i64 8, ptr %17) #16
  store i64 0, ptr %17, align 8, !tbaa !9
  call void @llvm.lifetime.start.p0(i64 8, ptr %18) #16
  %36 = load i64, ptr %15, align 8, !tbaa !9
  store i64 %36, ptr %18, align 8, !tbaa !9
  call void @llvm.lifetime.start.p0(i64 8, ptr %19) #16
  store i64 1, ptr %19, align 8, !tbaa !9
  call void @llvm.lifetime.start.p0(i64 4, ptr %20) #16
  store i32 0, ptr %20, align 4, !tbaa !55
  call void @llvm.lifetime.start.p0(i64 8, ptr %21) #16
  %37 = load ptr, ptr %7, align 8
  %38 = load i32, ptr %37, align 4, !tbaa !55
  call void @__kmpc_for_static_init_8(ptr @1, i32 %38, i32 34, ptr %20, ptr %17, ptr %18, ptr %19, i64 1, i64 1)
  %39 = load i64, ptr %18, align 8, !tbaa !9
  %40 = load i64, ptr %15, align 8, !tbaa !9
  %41 = icmp sgt i64 %39, %40
  br i1 %41, label %42, label %44

42:                                               ; preds = %35
  %43 = load i64, ptr %15, align 8, !tbaa !9
  br label %46

44:                                               ; preds = %35
  %45 = load i64, ptr %18, align 8, !tbaa !9
  br label %46

46:                                               ; preds = %44, %42
  %47 = phi i64 [ %43, %42 ], [ %45, %44 ]
  store i64 %47, ptr %18, align 8, !tbaa !9
  %48 = load i64, ptr %17, align 8, !tbaa !9
  store i64 %48, ptr %13, align 8, !tbaa !9
  br label %49

49:                                               ; preds = %82, %46
  %50 = load i64, ptr %13, align 8, !tbaa !9
  %51 = load i64, ptr %18, align 8, !tbaa !9
  %52 = icmp sle i64 %50, %51
  br i1 %52, label %54, label %53

53:                                               ; preds = %49
  br label %85

54:                                               ; preds = %49
  %55 = load i64, ptr %13, align 8, !tbaa !9
  %56 = mul nsw i64 %55, 1
  %57 = add nsw i64 0, %56
  store i64 %57, ptr %21, align 8, !tbaa !9
  %58 = load ptr, ptr %24, align 8, !tbaa !31
  %59 = load i64, ptr %21, align 8, !tbaa !9
  %60 = getelementptr inbounds i64, ptr %58, i64 %59
  %61 = load i64, ptr %60, align 8, !tbaa !9
  %62 = icmp slt i64 %61, 0
  br i1 %62, label %63, label %68

63:                                               ; preds = %54
  %64 = load ptr, ptr %24, align 8, !tbaa !31
  %65 = load i64, ptr %21, align 8, !tbaa !9
  %66 = getelementptr inbounds i64, ptr %64, i64 %65
  %67 = load i64, ptr %66, align 8, !tbaa !9
  br label %76

68:                                               ; preds = %54
  %69 = getelementptr inbounds nuw %"struct.faiss::IndexIDMapTemplate.3", ptr %25, i32 0, i32 3
  %70 = load ptr, ptr %24, align 8, !tbaa !31
  %71 = load i64, ptr %21, align 8, !tbaa !9
  %72 = getelementptr inbounds i64, ptr %70, i64 %71
  %73 = load i64, ptr %72, align 8, !tbaa !9
  %74 = call noundef nonnull align 8 dereferenceable(8) ptr @_ZNKSt6vectorIlSaIlEEixEm(ptr noundef nonnull align 8 dereferenceable(24) %69, i64 noundef %73) #16
  %75 = load i64, ptr %74, align 8, !tbaa !9
  br label %76

76:                                               ; preds = %68, %63
  %77 = phi i64 [ %67, %63 ], [ %75, %68 ]
  %78 = load ptr, ptr %24, align 8, !tbaa !31
  %79 = load i64, ptr %21, align 8, !tbaa !9
  %80 = getelementptr inbounds i64, ptr %78, i64 %79
  store i64 %77, ptr %80, align 8, !tbaa !9
  br label %81

81:                                               ; preds = %76
  br label %82

82:                                               ; preds = %81
  %83 = load i64, ptr %13, align 8, !tbaa !9
  %84 = add nsw i64 %83, 1
  store i64 %84, ptr %13, align 8, !tbaa !9
  br label %49

85:                                               ; preds = %53
  br label %86

86:                                               ; preds = %85
  %87 = load ptr, ptr %7, align 8
  %88 = load i32, ptr %87, align 4, !tbaa !55
  call void @__kmpc_for_static_fini(ptr @1, i32 %88)
  call void @llvm.lifetime.end.p0(i64 8, ptr %21) #16
  call void @llvm.lifetime.end.p0(i64 4, ptr %20) #16
  call void @llvm.lifetime.end.p0(i64 8, ptr %19) #16
  call void @llvm.lifetime.end.p0(i64 8, ptr %18) #16
  call void @llvm.lifetime.end.p0(i64 8, ptr %17) #16
  br label %89

89:                                               ; preds = %86, %6
  call void @llvm.lifetime.end.p0(i64 8, ptr %15) #16
  call void @llvm.lifetime.end.p0(i64 8, ptr %14) #16
  call void @llvm.lifetime.end.p0(i64 8, ptr %13) #16
  ret void
}